target datalayout = "e-m:e-p270:32:32-p271:32:32-p272:64:64-i64:64-i128:128-f80:128-n8:16:32:64-S128"
target triple = "x86_64-pc-linux-gnu"

%struct.redisObject = type { i32, i32, ptr }
%struct.sdshdr8 = type { i8, i8, i8, [0 x i8] }
%struct.sdshdr16 = type <{ i16, i16, i8, [0 x i8] }>
%struct.sdshdr32 = type <{ i32, i32, i8, [0 x i8] }>
%struct.sdshdr64 = type <{ i64, i64, i8, [0 x i8] }>
%struct.zset = type { ptr, ptr }
%struct.listpackEntry = type { ptr, i32, i64 }

@.str.1 = private unnamed_addr constant [9 x i8] c"t_zset.c\00", align 1
@.str.16 = private unnamed_addr constant [22 x i8] c"Unknown zset encoding\00", align 1

; Function Attrs: nounwind uwtable
define dso_local double @zzlStrtod(ptr noundef %0, i32 noundef %1) #0 {
  %3 = alloca ptr, align 8
  %4 = alloca i32, align 4
  %5 = alloca [128 x i8], align 16
  store ptr %0, ptr %3, align 8, !tbaa !11
  store i32 %1, ptr %4, align 4, !tbaa !5
  call void @llvm.lifetime.start.p0(i64 128, ptr %5) #12
  %6 = load i32, ptr %4, align 4, !tbaa !5
  %7 = zext i32 %6 to i64
  %8 = icmp ugt i64 %7, 127
  br i1 %8, label %9, label %10

9:                                                ; preds = %2
  store i32 127, ptr %4, align 4, !tbaa !5
  br label %10

10:                                               ; preds = %9, %2
  %11 = getelementptr inbounds [128 x i8], ptr %5, i64 0, i64 0
  %12 = load ptr, ptr %3, align 8, !tbaa !11
  %13 = load i32, ptr %4, align 4, !tbaa !5
  %14 = zext i32 %13 to i64
  call void @llvm.memcpy.p0.p0.i64(ptr align 16 %11, ptr align 1 %12, i64 %14, i1 false)
  %15 = load i32, ptr %4, align 4, !tbaa !5
  %16 = zext i32 %15 to i64
  %17 = getelementptr inbounds nuw [128 x i8], ptr %5, i64 0, i64 %16
  store i8 0, ptr %17, align 1, !tbaa !86
  %18 = getelementptr inbounds [128 x i8], ptr %5, i64 0, i64 0
  %19 = call double @fast_float_strtod(ptr noundef %18, ptr noundef null)
  call void @llvm.lifetime.end.p0(i64 128, ptr %5) #12
  ret double %19
}

; Function Attrs: inlinehint nounwind uwtable
define internal i64 @sdslen(ptr noundef %0) #8 {
  %2 = alloca i64, align 8
  %3 = alloca ptr, align 8
  %4 = alloca i8, align 1
  %5 = alloca i32, align 4
  store ptr %0, ptr %3, align 8, !tbaa !11
  call void @llvm.lifetime.start.p0(i64 1, ptr %4) #12
  %6 = load ptr, ptr %3, align 8, !tbaa !11
  %7 = getelementptr inbounds i8, ptr %6, i64 -1
  %8 = load i8, ptr %7, align 1, !tbaa !86
  store i8 %8, ptr %4, align 1, !tbaa !86
  %9 = load i8, ptr %4, align 1, !tbaa !86
  %10 = zext i8 %9 to i32
  %11 = and i32 %10, 7
  switch i32 %11, label %40 [
    i32 0, label %12
    i32 1, label %17
    i32 2, label %23
    i32 3, label %29
    i32 4, label %35
  ]

12:                                               ; preds = %1
  %13 = load i8, ptr %4, align 1, !tbaa !86
  %14 = zext i8 %13 to i32
  %15 = ashr i32 %14, 3
  %16 = sext i32 %15 to i64
  store i64 %16, ptr %2, align 8
  store i32 1, ptr %5, align 4
  br label %41

17:                                               ; preds = %1
  %18 = load ptr, ptr %3, align 8, !tbaa !11
  %19 = getelementptr inbounds i8, ptr %18, i64 -3
  %20 = getelementptr inbounds nuw %struct.sdshdr8, ptr %19, i32 0, i32 0
  %21 = load i8, ptr %20, align 1, !tbaa !86
  %22 = zext i8 %21 to i64
  store i64 %22, ptr %2, align 8
  store i32 1, ptr %5, align 4
  br label %41

23:                                               ; preds = %1
  %24 = load ptr, ptr %3, align 8, !tbaa !11
  %25 = getelementptr inbounds i8, ptr %24, i64 -5
  %26 = getelementptr inbounds nuw %struct.sdshdr16, ptr %25, i32 0, i32 0
  %27 = load i16, ptr %26, align 1, !tbaa !90
  %28 = zext i16 %27 to i64
  store i64 %28, ptr %2, align 8
  store i32 1, ptr %5, align 4
  br label %41

29:                                               ; preds = %1
  %30 = load ptr, ptr %3, align 8, !tbaa !11
  %31 = getelementptr inbounds i8, ptr %30, i64 -9
  %32 = getelementptr inbounds nuw %struct.sdshdr32, ptr %31, i32 0, i32 0
  %33 = load i32, ptr %32, align 1, !tbaa !5
  %34 = zext i32 %33 to i64
  store i64 %34, ptr %2, align 8
  store i32 1, ptr %5, align 4
  br label %41

35:                                               ; preds = %1
  %36 = load ptr, ptr %3, align 8, !tbaa !11
  %37 = getelementptr inbounds i8, ptr %36, i64 -17
  %38 = getelementptr inbounds nuw %struct.sdshdr64, ptr %37, i32 0, i32 0
  %39 = load i64, ptr %38, align 1, !tbaa !31
  store i64 %39, ptr %2, align 8
  store i32 1, ptr %5, align 4
  br label %41

40:                                               ; preds = %1
  store i64 0, ptr %2, align 8
  store i32 1, ptr %5, align 4
  br label %41

41:                                               ; preds = %40, %35, %29, %23, %17, %12
  call void @llvm.lifetime.end.p0(i64 1, ptr %4) #12
  %42 = load i64, ptr %2, align 8
  ret i64 %42
}

; Function Attrs: nounwind uwtable
define dso_local void @zsetTypeRandomElement(ptr noundef %0, i64 noundef %1, ptr noundef %2, ptr noundef %3) #0 {
  %5 = alloca ptr, align 8
  %6 = alloca i64, align 8
  %7 = alloca ptr, align 8
  %8 = alloca ptr, align 8
  %9 = alloca ptr, align 8
  %10 = alloca ptr, align 8
  %11 = alloca ptr, align 8
  %12 = alloca %struct.listpackEntry, align 8
  store ptr %0, ptr %5, align 8, !tbaa !78
  store i64 %1, ptr %6, align 8, !tbaa !31
  store ptr %2, ptr %7, align 8, !tbaa !45
  store ptr %3, ptr %8, align 8, !tbaa !105
  %13 = load ptr, ptr %5, align 8, !tbaa !78
  %14 = load i32, ptr %13, align 8
  %15 = lshr i32 %14, 4
  %16 = and i32 %15, 15
  %17 = icmp eq i32 %16, 7
  br i1 %17, label %18, label %44

18:                                               ; preds = %4
  call void @llvm.lifetime.start.p0(i64 8, ptr %9) #12
  %19 = load ptr, ptr %5, align 8, !tbaa !78
  %20 = getelementptr inbounds nuw %struct.redisObject, ptr %19, i32 0, i32 2
  %21 = load ptr, ptr %20, align 8, !tbaa !84
  store ptr %21, ptr %9, align 8, !tbaa !137
  call void @llvm.lifetime.start.p0(i64 8, ptr %10) #12
  %22 = load ptr, ptr %9, align 8, !tbaa !137
  %23 = getelementptr inbounds nuw %struct.zset, ptr %22, i32 0, i32 0
  %24 = load ptr, ptr %23, align 8, !tbaa !139
  %25 = call ptr @dictGetFairRandomKey(ptr noundef %24)
  store ptr %25, ptr %10, align 8, !tbaa !142
  call void @llvm.lifetime.start.p0(i64 8, ptr %11) #12
  %26 = load ptr, ptr %10, align 8, !tbaa !142
  %27 = call ptr @dictGetKey(ptr noundef %26)
  store ptr %27, ptr %11, align 8, !tbaa !11
  %28 = load ptr, ptr %11, align 8, !tbaa !11
  %29 = load ptr, ptr %7, align 8, !tbaa !45
  %30 = getelementptr inbounds nuw %struct.listpackEntry, ptr %29, i32 0, i32 0
  store ptr %28, ptr %30, align 8, !tbaa !146
  %31 = load ptr, ptr %11, align 8, !tbaa !11
  %32 = call i64 @sdslen(ptr noundef %31)
  %33 = trunc i64 %32 to i32
  %34 = load ptr, ptr %7, align 8, !tbaa !45
  %35 = getelementptr inbounds nuw %struct.listpackEntry, ptr %34, i32 0, i32 1
  store i32 %33, ptr %35, align 8, !tbaa !148
  %36 = load ptr, ptr %8, align 8, !tbaa !105
  %37 = icmp ne ptr %36, null
  br i1 %37, label %38, label %43

38:                                               ; preds = %18
  %39 = load ptr, ptr %10, align 8, !tbaa !142
  %40 = call ptr @dictGetVal(ptr noundef %39)
  %41 = load double, ptr %40, align 8, !tbaa !9
  %42 = load ptr, ptr %8, align 8, !tbaa !105
  store double %41, ptr %42, align 8, !tbaa !9
  br label %43

43:                                               ; preds = %38, %18
  call void @llvm.lifetime.end.p0(i64 8, ptr %11) #12
  call void @llvm.lifetime.end.p0(i64 8, ptr %10) #12
  call void @llvm.lifetime.end.p0(i64 8, ptr %9) #12
  br label %78

44:                                               ; preds = %4
  %45 = load ptr, ptr %5, align 8, !tbaa !78
  %46 = load i32, ptr %45, align 8
  %47 = lshr i32 %46, 4
  %48 = and i32 %47, 15
  %49 = icmp eq i32 %48, 11
  br i1 %49, label %50, label %76

50:                                               ; preds = %44
  call void @llvm.lifetime.start.p0(i64 24, ptr %12) #12
  %51 = load ptr, ptr %5, align 8, !tbaa !78
  %52 = getelementptr inbounds nuw %struct.redisObject, ptr %51, i32 0, i32 2
  %53 = load ptr, ptr %52, align 8, !tbaa !84
  %54 = load i64, ptr %6, align 8, !tbaa !31
  %55 = load ptr, ptr %7, align 8, !tbaa !45
  call void @lpRandomPair(ptr noundef %53, i64 noundef %54, ptr noundef %55, ptr noundef %12, i32 noundef 2)
  %56 = load ptr, ptr %8, align 8, !tbaa !105
  %57 = icmp ne ptr %56, null
  br i1 %57, label %58, label %75

58:                                               ; preds = %50
  %59 = getelementptr inbounds nuw %struct.listpackEntry, ptr %12, i32 0, i32 0
  %60 = load ptr, ptr %59, align 8, !tbaa !146
  %61 = icmp ne ptr %60, null
  br i1 %61, label %62, label %69

62:                                               ; preds = %58
  %63 = getelementptr inbounds nuw %struct.listpackEntry, ptr %12, i32 0, i32 0
  %64 = load ptr, ptr %63, align 8, !tbaa !146
  %65 = getelementptr inbounds nuw %struct.listpackEntry, ptr %12, i32 0, i32 1
  %66 = load i32, ptr %65, align 8, !tbaa !148
  %67 = call double @zzlStrtod(ptr noundef %64, i32 noundef %66)
  %68 = load ptr, ptr %8, align 8, !tbaa !105
  store double %67, ptr %68, align 8, !tbaa !9
  br label %74

69:                                               ; preds = %58
  %70 = getelementptr inbounds nuw %struct.listpackEntry, ptr %12, i32 0, i32 2
  %71 = load i64, ptr %70, align 8, !tbaa !149
  %72 = sitofp i64 %71 to double
  %73 = load ptr, ptr %8, align 8, !tbaa !105
  store double %72, ptr %73, align 8, !tbaa !9
  br label %74

74:                                               ; preds = %69, %62
  br label %75

75:                                               ; preds = %74, %50
  call void @llvm.lifetime.end.p0(i64 24, ptr %12) #12
  br label %77

76:                                               ; preds = %44
  call void (ptr, i32, ptr, ...) @_serverPanic(ptr noundef @.str.1, i32 noundef 1750, ptr noundef @.str.16)
  call void @abort() #14
  unreachable

77:                                               ; preds = %75
  br label %78

78:                                               ; preds = %77, %43
  ret void
}