; Function Attrs: nounwind uwtable
define dso_local void @zsetTypeRandomElement(ptr noundef readonly captures(none) %0, i64 noundef %1, ptr noundef %2, ptr noundef writeonly captures(address_is_null) %3) local_unnamed_addr #0 {
  %5 = alloca [128 x i8], align 16
  %6 = alloca %struct.listpackEntry, align 8
  %7 = load i32, ptr %0, align 8
  %8 = lshr i32 %7, 4
  %9 = and i32 %8, 15
  switch i32 %9, label %59 [
    i32 7, label %10
    i32 11, label %43
  ]

10:                                               ; preds = %4
  %11 = getelementptr inbounds nuw i8, ptr %0, i64 8
  %12 = load ptr, ptr %11, align 8, !tbaa !75
  %13 = load ptr, ptr %12, align 8, !tbaa !125
  %14 = tail call ptr @dictGetFairRandomKey(ptr noundef %13) #18
  %15 = tail call ptr @dictGetKey(ptr noundef %14) #18
  store ptr %15, ptr %2, align 8, !tbaa !132
  %16 = getelementptr inbounds i8, ptr %15, i64 -1
  %17 = load i8, ptr %16, align 1, !tbaa !77
  %18 = zext i8 %17 to i32
  %19 = and i32 %18, 7
  switch i32 %19, label %sdslen.exit [
    i32 0, label %20
    i32 1, label %23
    i32 2, label %27
    i32 3, label %31
    i32 4, label %35
  ]

20:                                               ; preds = %10
  %21 = lshr i32 %18, 3
  %22 = zext nneg i32 %21 to i64
  br label %sdslen.exit

23:                                               ; preds = %10
  %24 = getelementptr inbounds i8, ptr %15, i64 -3
  %25 = load i8, ptr %24, align 1, !tbaa !77
  %26 = zext i8 %25 to i64
  br label %sdslen.exit

27:                                               ; preds = %10
  %28 = getelementptr inbounds i8, ptr %15, i64 -5
  %29 = load i16, ptr %28, align 1, !tbaa !79
  %30 = zext i16 %29 to i64
  br label %sdslen.exit

31:                                               ; preds = %10
  %32 = getelementptr inbounds i8, ptr %15, i64 -9
  %33 = load i32, ptr %32, align 1, !tbaa !78
  %34 = zext i32 %33 to i64
  br label %sdslen.exit

35:                                               ; preds = %10
  %36 = getelementptr inbounds i8, ptr %15, i64 -17
  %37 = load i64, ptr %36, align 1, !tbaa !26
  br label %sdslen.exit

sdslen.exit:                                      ; preds = %10, %20, %23, %27, %31, %35
  %.0.i = phi i64 [ %37, %35 ], [ %34, %31 ], [ %30, %27 ], [ %26, %23 ], [ %22, %20 ], [ 0, %10 ]
  %38 = trunc i64 %.0.i to i32
  %39 = getelementptr inbounds nuw i8, ptr %2, i64 8
  store i32 %38, ptr %39, align 8, !tbaa !134
  %.not20 = icmp eq ptr %3, null
  br i1 %.not20, label %60, label %40

40:                                               ; preds = %sdslen.exit
  %41 = tail call ptr @dictGetVal(ptr noundef %14) #18
  %42 = load double, ptr %41, align 8, !tbaa !5
  store double %42, ptr %3, align 8, !tbaa !5
  br label %60

43:                                               ; preds = %4
  call void @llvm.lifetime.start.p0(i64 24, ptr nonnull %6) #18
  %44 = getelementptr inbounds nuw i8, ptr %0, i64 8
  %45 = load ptr, ptr %44, align 8, !tbaa !75
  call void @lpRandomPair(ptr noundef %45, i64 noundef %1, ptr noundef %2, ptr noundef nonnull %6, i32 noundef 2) #18
  %.not = icmp eq ptr %3, null
  br i1 %.not, label %58, label %46

46:                                               ; preds = %43
  %47 = load ptr, ptr %6, align 8, !tbaa !132
  %.not19 = icmp eq ptr %47, null
  br i1 %.not19, label %54, label %48

48:                                               ; preds = %46
  %49 = getelementptr inbounds nuw i8, ptr %6, i64 8
  %50 = load i32, ptr %49, align 8, !tbaa !134
  call void @llvm.lifetime.start.p0(i64 128, ptr nonnull %5) #18
  %spec.store.select.i = call i32 @llvm.umin.i32(i32 %50, i32 127)
  %51 = zext nneg i32 %spec.store.select.i to i64
  call void @llvm.memcpy.p0.p0.i64(ptr nonnull align 16 %5, ptr nonnull readonly align 1 %47, i64 %51, i1 false)
  %52 = getelementptr inbounds nuw [128 x i8], ptr %5, i64 0, i64 %51
  store i8 0, ptr %52, align 1, !tbaa !77
  %53 = call double @fast_float_strtod(ptr noundef nonnull %5, ptr noundef null) #18
  call void @llvm.lifetime.end.p0(i64 128, ptr nonnull %5) #18
  br label %.sink.split

54:                                               ; preds = %46
  %55 = getelementptr inbounds nuw i8, ptr %6, i64 16
  %56 = load i64, ptr %55, align 8, !tbaa !135
  %57 = sitofp i64 %56 to double
  br label %.sink.split

.sink.split:                                      ; preds = %54, %48
  %.sink = phi double [ %53, %48 ], [ %57, %54 ]
  store double %.sink, ptr %3, align 8, !tbaa !5
  br label %58

58:                                               ; preds = %.sink.split, %43
  call void @llvm.lifetime.end.p0(i64 24, ptr nonnull %6) #18
  br label %60

59:                                               ; preds = %4
  tail call void (ptr, i32, ptr, ...) @_serverPanic(ptr noundef nonnull @.str.1, i32 noundef 1750, ptr noundef nonnull @.str.16) #18
  tail call void @abort() #19
  unreachable

60:                                               ; preds = %sdslen.exit, %40, %58
  ret void
}